(lp0
ccopy_reg
_reconstructor
p1
(c__main__
Contact
p2
c__builtin__
object
p3
Ntp4
Rp5
(dp6
S'phone'
p7
I5
sS'last'
p8
S'A'
p9
sS'first'
p10
S'Melissa'
p11
sbag1
(g2
g3
Ntp12
Rp13
(dp14
g7
I1
sg8
S'B'
p15
sg10
S'Igor'
p16
sbag1
(g2
g3
Ntp17
Rp18
(dp19
g7
I3
sg8
S'C'
p20
sg10
S'Jazz'
p21
sbag1
(g2
g3
Ntp22
Rp23
(dp24
g7
I4
sg8
S'D'
p25
sg10
S'Ashley'
p26
sbag1
(g2
g3
Ntp27
Rp28
(dp29
g7
I2
sg8
S'E'
p30
sg10
S'Calli'
p31
sbag1
(g2
g3
Ntp32
Rp33
(dp34
g7
I6
sg8
S'F'
p35
sg10
S'Ava'
p36
sba.